; Function Attrs: nounwind uwtable
define range(i32 -1, 1) i32 @pmix_show_vhelp(ptr noundef %0, ptr noundef %1, i32 noundef %2, ptr noundef %3) local_unnamed_addr #0 {
  %5 = tail call ptr @pmix_show_help_vstring(ptr noundef %0, ptr noundef %1, i32 noundef %2, ptr noundef %3)
  %.not = icmp eq ptr %5, null
  br i1 %.not, label %7, label %6

6:                                                ; preds = %4
  tail call fastcc void @local_delivery(ptr noundef %0, ptr noundef %1, ptr noundef nonnull %5)
  br label %7

7:                                                ; preds = %6, %4
  %8 = sext i1 %.not to i32
  ret i32 %8
}